; Function Attrs: nounwind uwtable
define range(i32 -1, 1) i32 @H5Ldelete(i64 noundef %0, ptr noundef %1, i64 noundef %2) local_unnamed_addr #0 {
  %4 = alloca %struct.H5CX_node_t, align 8
  call void @llvm.lifetime.start.p0(i64 480, ptr nonnull %4) #7
  call void @llvm.memset.p0.i64(ptr noundef nonnull align 8 dereferenceable(480) %4, i8 0, i64 480, i1 false)
  %5 = load i8, ptr @H5_libinit_g, align 1, !tbaa !7, !range !9, !noundef !10
  %6 = trunc nuw i8 %5 to i1
  %7 = load i8, ptr @H5_libterm_g, align 1, !range !9
  %8 = trunc nuw i8 %7 to i1
  %9 = select i1 %6, i1 true, i1 %8
  br i1 %9, label %17, label %10, !prof !11

10:                                               ; preds = %3
  %11 = tail call i32 @H5_init_library() #7
  %12 = icmp slt i32 %11, 0
  br i1 %12, label %13, label %._crit_edge, !prof !12

._crit_edge:                                      ; preds = %10
  %.pre = load i8, ptr @H5_libterm_g, align 1, !range !9
  br label %17

13:                                               ; preds = %10
  %14 = load i64, ptr @H5E_FUNC_g, align 8, !tbaa !3
  %15 = load i64, ptr @H5E_CANTINIT_g, align 8, !tbaa !3
  %16 = tail call i32 (ptr, ptr, i32, i64, i64, ptr, ...) @H5E_printf_stack(ptr noundef nonnull @.str, ptr noundef nonnull @__func__.H5Ldelete, i32 noundef 819, i64 noundef %14, i64 noundef %15, ptr noundef nonnull @.str.1) #7
  br label %.thread16

17:                                               ; preds = %._crit_edge, %3
  %18 = phi i8 [ %.pre, %._crit_edge ], [ %7, %3 ]
  %19 = load i8, ptr @H5L_init_g, align 1, !tbaa !7, !range !9, !noundef !10
  %20 = trunc nuw i8 %19 to i1
  %21 = trunc nuw i8 %18 to i1
  %22 = select i1 %20, i1 true, i1 %21
  br i1 %22, label %30, label %23, !prof !11

23:                                               ; preds = %17
  store i8 1, ptr @H5L_init_g, align 1, !tbaa !7
  %24 = tail call i32 @H5L__init_package() #7
  %25 = icmp slt i32 %24, 0
  br i1 %25, label %26, label %30, !prof !13

26:                                               ; preds = %23
  store i8 0, ptr @H5L_init_g, align 1, !tbaa !7
  %27 = load i64, ptr @H5E_FUNC_g, align 8, !tbaa !3
  %28 = load i64, ptr @H5E_CANTINIT_g, align 8, !tbaa !3
  %29 = tail call i32 (ptr, ptr, i32, i64, i64, ptr, ...) @H5E_printf_stack(ptr noundef nonnull @.str, ptr noundef nonnull @__func__.H5Ldelete, i32 noundef 819, i64 noundef %27, i64 noundef %28, ptr noundef nonnull @.str.2) #7
  br label %.thread16

30:                                               ; preds = %17, %23
  %31 = call i32 @H5CX_push(ptr noundef nonnull %4) #7
  %32 = icmp slt i32 %31, 0
  br i1 %32, label %33, label %37, !prof !12

33:                                               ; preds = %30
  %34 = load i64, ptr @H5E_FUNC_g, align 8, !tbaa !3
  %35 = load i64, ptr @H5E_CANTSET_g, align 8, !tbaa !3
  %36 = call i32 (ptr, ptr, i32, i64, i64, ptr, ...) @H5E_printf_stack(ptr noundef nonnull @.str, ptr noundef nonnull @__func__.H5Ldelete, i32 noundef 819, i64 noundef %34, i64 noundef %35, ptr noundef nonnull @.str.3) #7
  br label %.thread16

37:                                               ; preds = %30
  %38 = call i32 @H5E_clear_stack() #7
  %39 = call fastcc i32 @H5L__delete_api_common(i64 noundef %0, ptr noundef %1, i64 noundef %2, ptr noundef null, ptr noundef null)
  %40 = icmp slt i32 %39, 0
  br i1 %40, label %.thread21, label %45, !prof !19

.thread21:                                        ; preds = %37
  %41 = load i64, ptr @H5E_LINK_g, align 8, !tbaa !3
  %42 = load i64, ptr @H5E_CANTDELETE_g, align 8, !tbaa !3
  %43 = call i32 (ptr, ptr, i32, i64, i64, ptr, ...) @H5E_printf_stack(ptr noundef nonnull @.str, ptr noundef nonnull @__func__.H5Ldelete, i32 noundef 823, i64 noundef %41, i64 noundef %42, ptr noundef nonnull @.str.46) #7
  %44 = call i32 @H5CX_pop(i1 noundef zeroext true) #7
  br label %.thread16

45:                                               ; preds = %37
  %46 = call i32 @H5CX_pop(i1 noundef zeroext true) #7
  br label %48

.thread16:                                        ; preds = %13, %26, %33, %.thread21
  %47 = call i32 @H5E_dump_api_stack() #7
  br label %48

48:                                               ; preds = %45, %.thread16
  %.0101419 = phi i32 [ -1, %.thread16 ], [ 0, %45 ]
  call void @llvm.lifetime.end.p0(i64 480, ptr nonnull %4) #7
  ret i32 %.0101419
}